target datalayout = "e-m:e-p270:32:32-p271:32:32-p272:64:64-i64:64-i128:128-f80:128-n8:16:32:64-S128"
target triple = "x86_64-pc-linux-gnu"

%struct.ldap_conv_info_t = type { i32, ptr, i32, ptr, ptr, i8, i32, i8, i32 }
%struct._asn1_ctx_t = type { i32, i32, i8, ptr, ptr, ptr, ptr, ptr, %struct.anon.2, %struct.anon.5, %struct.anon.6, ptr }
%struct.anon.2 = type { i32, i8, i8, i8, ptr, ptr, i32, i32, ptr, ptr, ptr, %union.anon }
%union.anon = type { %struct.anon.3 }
%struct.anon.3 = type { ptr }
%struct.anon.5 = type { ptr, ptr, ptr }
%struct.anon.6 = type { i32, i8, ptr, i32, i32, ptr, ptr, ptr, %union.anon.7 }
%union.anon.7 = type { %struct.anon.8 }
%struct.anon.8 = type { ptr }

@gssapi_handle = internal global ptr null, align 8
@spnego_handle = internal global ptr null, align 8

; Function Attrs: null_pointer_is_valid sspstrong uwtable
define internal i32 @dissect_ldap_Credentials(i1 noundef zeroext %0, ptr noundef %1, i32 noundef %2, ptr noundef %3, ptr noundef %4, i32 noundef %5) #0 {
  %7 = alloca i32, align 4
  %8 = alloca i8, align 1
  %9 = alloca ptr, align 8
  %10 = alloca i32, align 4
  %11 = alloca ptr, align 8
  %12 = alloca ptr, align 8
  %13 = alloca i32, align 4
  %14 = alloca ptr, align 8
  %15 = alloca ptr, align 8
  %16 = alloca i8, align 1
  %17 = alloca i8, align 1
  %18 = alloca i32, align 4
  %19 = alloca i32, align 4
  %20 = zext i1 %0 to i8
  store i8 %20, ptr %8, align 1
  store ptr %1, ptr %9, align 8
  store i32 %2, ptr %10, align 4
  store ptr %3, ptr %11, align 8
  store ptr %4, ptr %12, align 8
  store i32 %5, ptr %13, align 4
  call void @llvm.lifetime.start.p0(i64 8, ptr %14) #16
  call void @llvm.lifetime.start.p0(i64 8, ptr %15) #16
  call void @llvm.lifetime.start.p0(i64 1, ptr %16) #16
  call void @llvm.lifetime.start.p0(i64 1, ptr %17) #16
  call void @llvm.lifetime.start.p0(i64 4, ptr %18) #16
  %21 = load i8, ptr %8, align 1, !range !6, !noundef !7
  %22 = trunc i8 %21 to i1
  %23 = load ptr, ptr %11, align 8
  %24 = load ptr, ptr %12, align 8
  %25 = load ptr, ptr %9, align 8
  %26 = load i32, ptr %10, align 4
  %27 = load i32, ptr %13, align 4
  %28 = call i32 @dissect_ber_octet_string(i1 noundef zeroext %22, ptr noundef %23, ptr noundef %24, ptr noundef %25, i32 noundef %26, i32 noundef %27, ptr noundef %14)
  store i32 %28, ptr %10, align 4
  %29 = load ptr, ptr %14, align 8
  %30 = icmp ne ptr %29, null
  br i1 %30, label %33, label %31

31:                                               ; preds = %6
  %32 = load i32, ptr %10, align 4
  store i32 %32, ptr %7, align 4
  store i32 1, ptr %19, align 4
  br label %93

33:                                               ; preds = %6
  %34 = load ptr, ptr %11, align 8
  %35 = getelementptr inbounds nuw %struct._asn1_ctx_t, ptr %34, i32 0, i32 7
  %36 = load ptr, ptr %35, align 8
  store ptr %36, ptr %15, align 8
  %37 = load ptr, ptr %14, align 8
  %38 = call i32 @get_ber_identifier(ptr noundef %37, i32 noundef 0, ptr noundef %16, ptr noundef %17, ptr noundef %18)
  %39 = load ptr, ptr %15, align 8
  %40 = getelementptr inbounds nuw %struct.ldap_conv_info_t, ptr %39, i32 0, i32 1
  %41 = load ptr, ptr %40, align 8
  %42 = icmp ne ptr %41, null
  br i1 %42, label %43, label %63

43:                                               ; preds = %33
  %44 = load i8, ptr %16, align 1
  %45 = sext i8 %44 to i32
  %46 = icmp eq i32 %45, 2
  br i1 %46, label %47, label %63

47:                                               ; preds = %43
  %48 = load ptr, ptr %14, align 8
  %49 = icmp ne ptr %48, null
  br i1 %49, label %50, label %62

50:                                               ; preds = %47
  %51 = load ptr, ptr %14, align 8
  %52 = call i32 @tvb_reported_length(ptr noundef %51)
  %53 = icmp ugt i32 %52, 0
  br i1 %53, label %54, label %62

54:                                               ; preds = %50
  %55 = load ptr, ptr @spnego_handle, align 8
  %56 = load ptr, ptr %14, align 8
  %57 = load ptr, ptr %11, align 8
  %58 = getelementptr inbounds nuw %struct._asn1_ctx_t, ptr %57, i32 0, i32 3
  %59 = load ptr, ptr %58, align 8
  %60 = load ptr, ptr %12, align 8
  %61 = call i32 @call_dissector(ptr noundef %55, ptr noundef %56, ptr noundef %59, ptr noundef %60)
  br label %62

62:                                               ; preds = %54, %50, %47
  br label %63

63:                                               ; preds = %62, %43, %33
  %64 = load ptr, ptr %15, align 8
  %65 = getelementptr inbounds nuw %struct.ldap_conv_info_t, ptr %64, i32 0, i32 1
  %66 = load ptr, ptr %65, align 8
  %67 = icmp ne ptr %66, null
  br i1 %67, label %68, label %88

68:                                               ; preds = %63
  %69 = load i8, ptr %16, align 1
  %70 = sext i8 %69 to i32
  %71 = icmp eq i32 %70, 1
  br i1 %71, label %72, label %88

72:                                               ; preds = %68
  %73 = load ptr, ptr %14, align 8
  %74 = icmp ne ptr %73, null
  br i1 %74, label %75, label %87

75:                                               ; preds = %72
  %76 = load ptr, ptr %14, align 8
  %77 = call i32 @tvb_reported_length(ptr noundef %76)
  %78 = icmp ugt i32 %77, 0
  br i1 %78, label %79, label %87

79:                                               ; preds = %75
  %80 = load ptr, ptr @gssapi_handle, align 8
  %81 = load ptr, ptr %14, align 8
  %82 = load ptr, ptr %11, align 8
  %83 = getelementptr inbounds nuw %struct._asn1_ctx_t, ptr %82, i32 0, i32 3
  %84 = load ptr, ptr %83, align 8
  %85 = load ptr, ptr %12, align 8
  %86 = call i32 @call_dissector(ptr noundef %80, ptr noundef %81, ptr noundef %84, ptr noundef %85)
  br label %87

87:                                               ; preds = %79, %75, %72
  br label %88

88:                                               ; preds = %87, %68, %63
  %89 = load ptr, ptr %15, align 8
  %90 = load ptr, ptr %11, align 8
  %91 = getelementptr inbounds nuw %struct._asn1_ctx_t, ptr %90, i32 0, i32 7
  store ptr %89, ptr %91, align 8
  %92 = load i32, ptr %10, align 4
  store i32 %92, ptr %7, align 4
  store i32 1, ptr %19, align 4
  br label %93

93:                                               ; preds = %88, %31
  call void @llvm.lifetime.end.p0(i64 4, ptr %18) #16
  call void @llvm.lifetime.end.p0(i64 1, ptr %17) #16
  call void @llvm.lifetime.end.p0(i64 1, ptr %16) #16
  call void @llvm.lifetime.end.p0(i64 8, ptr %15) #16
  call void @llvm.lifetime.end.p0(i64 8, ptr %14) #16
  %94 = load i32, ptr %7, align 4
  ret i32 %94
}