; Function Attrs: null_pointer_is_valid sspstrong uwtable
define internal i32 @dissect_ldap_Credentials(i1 noundef zeroext %0, ptr noundef %1, i32 noundef %2, ptr noundef %3, ptr noundef %4, i32 noundef %5) #0 {
  %7 = alloca ptr, align 8
  %8 = alloca i8, align 1
  %9 = alloca i8, align 1
  %10 = alloca i32, align 4
  call void @llvm.lifetime.start.p0(i64 8, ptr nonnull %7) #14
  call void @llvm.lifetime.start.p0(i64 1, ptr nonnull %8) #14
  call void @llvm.lifetime.start.p0(i64 1, ptr nonnull %9) #14
  call void @llvm.lifetime.start.p0(i64 4, ptr nonnull %10) #14
  %11 = call i32 @dissect_ber_octet_string(i1 noundef zeroext %0, ptr noundef %3, ptr noundef %4, ptr noundef %1, i32 noundef %2, i32 noundef %5, ptr noundef nonnull %7)
  %12 = load ptr, ptr %7, align 8
  %.not = icmp eq ptr %12, null
  br i1 %.not, label %47, label %13

13:                                               ; preds = %6
  %14 = getelementptr inbounds nuw i8, ptr %3, i64 48
  %15 = load ptr, ptr %14, align 8
  %16 = call i32 @get_ber_identifier(ptr noundef nonnull %12, i32 noundef 0, ptr noundef nonnull %8, ptr noundef nonnull %9, ptr noundef nonnull %10)
  %17 = getelementptr inbounds nuw i8, ptr %15, i64 8
  %18 = load ptr, ptr %17, align 8
  %19 = icmp ne ptr %18, null
  %20 = load i8, ptr %8, align 1
  %21 = icmp eq i8 %20, 2
  %or.cond = select i1 %19, i1 %21, i1 false
  %22 = load ptr, ptr %7, align 8
  %23 = icmp ne ptr %22, null
  %or.cond7 = select i1 %or.cond, i1 %23, i1 false
  br i1 %or.cond7, label %24, label %31

24:                                               ; preds = %13
  %25 = call i32 @tvb_reported_length(ptr noundef nonnull %22)
  %.not28 = icmp eq i32 %25, 0
  %.pre30 = load ptr, ptr %7, align 8
  br i1 %.not28, label %31, label %26

26:                                               ; preds = %24
  %27 = load ptr, ptr @spnego_handle, align 8
  %28 = getelementptr inbounds nuw i8, ptr %3, i64 16
  %29 = load ptr, ptr %28, align 8
  %30 = call i32 @call_dissector(ptr noundef %27, ptr noundef %.pre30, ptr noundef %29, ptr noundef %4)
  %.pre = load ptr, ptr %7, align 8
  br label %31

31:                                               ; preds = %24, %26, %13
  %32 = phi ptr [ %.pre30, %24 ], [ %.pre, %26 ], [ %22, %13 ]
  %33 = load ptr, ptr %17, align 8
  %34 = icmp ne ptr %33, null
  %35 = load i8, ptr %8, align 1
  %36 = icmp eq i8 %35, 1
  %or.cond5 = select i1 %34, i1 %36, i1 false
  %37 = icmp ne ptr %32, null
  %or.cond9 = select i1 %or.cond5, i1 %37, i1 false
  br i1 %or.cond9, label %38, label %46

38:                                               ; preds = %31
  %39 = call i32 @tvb_reported_length(ptr noundef nonnull %32)
  %.not29 = icmp eq i32 %39, 0
  br i1 %.not29, label %46, label %40

40:                                               ; preds = %38
  %41 = load ptr, ptr @gssapi_handle, align 8
  %42 = load ptr, ptr %7, align 8
  %43 = getelementptr inbounds nuw i8, ptr %3, i64 16
  %44 = load ptr, ptr %43, align 8
  %45 = call i32 @call_dissector(ptr noundef %41, ptr noundef %42, ptr noundef %44, ptr noundef %4)
  br label %46

46:                                               ; preds = %38, %40, %31
  store ptr %15, ptr %14, align 8
  br label %47

47:                                               ; preds = %6, %46
  call void @llvm.lifetime.end.p0(i64 4, ptr nonnull %10) #14
  call void @llvm.lifetime.end.p0(i64 1, ptr nonnull %9) #14
  call void @llvm.lifetime.end.p0(i64 1, ptr nonnull %8) #14
  call void @llvm.lifetime.end.p0(i64 8, ptr nonnull %7) #14
  ret i32 %11
}